(dp1
S'background_colour'
p2
(dp3
sS'log_index'
p4
<<<<<<< HEAD:mnemosyne/mnemosyne/maemo_ui/.mnemosyne/config
I1
=======
I3
>>>>>>> T58:mnemosyne/mnemosyne/maemo_ui/.mnemosyne/config
sS'locale'
p5
NsS'show_daily_tips'
p6
I01
sS'import_format'
p7
S'XML'
p8
sS'day_starts_at'
p9
I3
sS'dvipng'
p10
S'dvipng -D 200 -T tight tmp.dvi'
p11
sS'themes'
p12
(lp13
S'rainbow'
p14
asS'controls'
p15
<<<<<<< HEAD:mnemosyne/mnemosyne/maemo_ui/.mnemosyne/config
=======
asS'controls'
p16
>>>>>>> T58:mnemosyne/mnemosyne/maemo_ui/.mnemosyne/config
I01
sS'active_plugins'
p16
c__builtin__
set
p17
((ltRp18
sS'font'
p19
(dp20
sS'alignment'
p21
(dp22
sS'only_editable_when_answer_shown'
p23
I00
sS'export_format'
<<<<<<< HEAD:mnemosyne/mnemosyne/maemo_ui/.mnemosyne/config
p24
=======
p25
>>>>>>> T58:mnemosyne/mnemosyne/maemo_ui/.mnemosyne/config
g8
sS'export_dir'
p25
V/home/ed/git/mnemosyne-proj/mnemosyne/mnemosyne/maemo_ui/.mnemosyne
p26
sS'font_colour'
p27
(dp28
sS'import_video_dir'
p29
g26
sS'backups_to_keep'
p30
I5
sS'tip'
p31
I0
<<<<<<< HEAD:mnemosyne/mnemosyne/maemo_ui/.mnemosyne/config
sS'randomise_new_cards'
p32
I00
sS'reset_learning_data_export'
p33
I00
sS'import_sound_dir'
p34
g26
sS'reset_learning_data_import'
p35
I00
sS'import_dir'
p36
g26
sS'startup_with_review'
p37
I00
sS'fullscreen'
p38
I01
sS'import_img_dir'
p39
g26
sS'show_intervals'
p40
S'never'
p41
sS'latex_preamble'
p42
S'\\documentclass[12pt]{article}\n\\pagestyle{empty}\n\\begin{document}'
p43
sS'upload_server'
p44
S'mnemosyne-proj.dyndns.org:80'
p45
sS'learn_related_cards_together'
p46
I00
sS'path'
p47
Vdefault.db
p48
sS'latex_postamble'
p49
S'\\end{document}'
p50
sS'latex'
p51
S'latex -interaction=nonstopmode'
p52
sS'sounddir'
p53
S'/home/user/MyDocs/.sounds'
p54
sS'font_size'
p55
F30
sS'first_run'
p56
I01
sS'user_id'
p57
S'762935c2-045a-42b5-a8e0-96155ae739c7'
p58
sS'imagedir'
p59
S'/home/user/MyDocs/.images'
p60
sS'theme_path'
p61
S'/usr/share/mnemosyne/hildon-UI/rainbow'
p62
sS'grade_0_cards_at_once'
p63
I10
sS'upload_logs'
=======
sS'imagedir'
p34
S'/home/'
p35
sS'randomise_new_cards'
p36
I00
sS'reset_learning_data_export'
p37
I00
sS'import_sound_dir'
p38
g27
sS'reset_learning_data_import'
p39
I00
sS'import_dir'
p40
g27
sS'startup_with_review'
p41
I00
sS'fullscreen'
p42
I01
sS'import_img_dir'
p43
g27
sS'show_intervals'
p44
S'never'
p45
sS'latex_preamble'
p46
S'\\documentclass[12pt]{article}\n\\pagestyle{empty}\n\\begin{document}'
p47
sS'upload_server'
p48
S'mnemosyne-proj.dyndns.org:80'
p49
sS'learn_related_cards_together'
p50
I00
sS'path'
p51
Vdefault.db
p52
sS'latex_postamble'
p53
S'\\end{document}'
p54
sS'latex'
p55
S'latex -interaction=nonstopmode'
p56
sS'sounddir'
p57
S'/home/'
p58
sS'font_size'
p59
I29
sS'first_run'
p60
I01
sS'user_id'
p61
S'a9244bb1-bc89-4380-8fcc-235dc7a02c76'
p62
sS'grade_0_items_at_once'
p63
I10
sS'theme_path'
>>>>>>> T58:mnemosyne/mnemosyne/maemo_ui/.mnemosyne/config
p64
I00
sS'autoplay'
p65
<<<<<<< HEAD:mnemosyne/mnemosyne/maemo_ui/.mnemosyne/config
=======
sS'grade_0_cards_at_once'
p66
I10
sS'upload_logs'
p67
I00
sS'autoplay'
p68
>>>>>>> T58:mnemosyne/mnemosyne/maemo_ui/.mnemosyne/config
I01
sS'times_loaded'
p66
I0
sS'randomise_scheduled_cards'
<<<<<<< HEAD:mnemosyne/mnemosyne/maemo_ui/.mnemosyne/config
p67
=======
p70
>>>>>>> T58:mnemosyne/mnemosyne/maemo_ui/.mnemosyne/config
I00
s.